target datalayout = "e-m:e-p270:32:32-p271:32:32-p272:64:64-i64:64-i128:128-f80:128-n8:16:32:64-S128"
target triple = "x86_64-pc-linux-gnu"

; Function Attrs: mustprogress nounwind uwtable
define linkonce_odr noundef i32 @_Z5qRgbaiiii(i32 noundef %0, i32 noundef %1, i32 noundef %2, i32 noundef %3) #4 comdat {
  %5 = alloca i32, align 4
  %6 = alloca i32, align 4
  %7 = alloca i32, align 4
  %8 = alloca i32, align 4
  store i32 %0, ptr %5, align 4
  store i32 %1, ptr %6, align 4
  store i32 %2, ptr %7, align 4
  store i32 %3, ptr %8, align 4
  %9 = load i32, ptr %8, align 4
  %10 = and i32 %9, 255
  %11 = shl i32 %10, 24
  %12 = load i32, ptr %5, align 4
  %13 = and i32 %12, 255
  %14 = shl i32 %13, 16
  %15 = or i32 %11, %14
  %16 = load i32, ptr %6, align 4
  %17 = and i32 %16, 255
  %18 = shl i32 %17, 8
  %19 = or i32 %15, %18
  %20 = load i32, ptr %7, align 4
  %21 = and i32 %20, 255
  %22 = or i32 %19, %21
  ret i32 %22
}

; Function Attrs: mustprogress nounwind uwtable
define linkonce_odr noundef i32 @_Z6qAlphaj(i32 noundef %0) #4 comdat {
  %2 = alloca i32, align 4
  store i32 %0, ptr %2, align 4
  %3 = load i32, ptr %2, align 4
  %4 = lshr i32 %3, 24
  ret i32 %4
}

; Function Attrs: mustprogress nounwind uwtable
define linkonce_odr noundef i32 @_Z5qBluej(i32 noundef %0) #4 comdat {
  %2 = alloca i32, align 4
  store i32 %0, ptr %2, align 4
  %3 = load i32, ptr %2, align 4
  %4 = and i32 %3, 255
  ret i32 %4
}

; Function Attrs: mustprogress nounwind uwtable
define linkonce_odr noundef i32 @_Z6qGreenj(i32 noundef %0) #4 comdat {
  %2 = alloca i32, align 4
  store i32 %0, ptr %2, align 4
  %3 = load i32, ptr %2, align 4
  %4 = lshr i32 %3, 8
  %5 = and i32 %4, 255
  ret i32 %5
}

; Function Attrs: mustprogress nounwind uwtable
define noundef i32 @_ZN3vcg6mean4wEihihihih(i32 noundef %0, i8 noundef zeroext %1, i32 noundef %2, i8 noundef zeroext %3, i32 noundef %4, i8 noundef zeroext %5, i32 noundef %6, i8 noundef zeroext %7) #4 {
  %9 = alloca i32, align 4
  %10 = alloca i8, align 1
  %11 = alloca i32, align 4
  %12 = alloca i8, align 1
  %13 = alloca i32, align 4
  %14 = alloca i8, align 1
  %15 = alloca i32, align 4
  %16 = alloca i8, align 1
  %17 = alloca i32, align 4
  store i32 %0, ptr %9, align 4
  store i8 %1, ptr %10, align 1
  store i32 %2, ptr %11, align 4
  store i8 %3, ptr %12, align 1
  store i32 %4, ptr %13, align 4
  store i8 %5, ptr %14, align 1
  store i32 %6, ptr %15, align 4
  store i8 %7, ptr %16, align 1
  %18 = load i32, ptr %9, align 4
  %19 = load i8, ptr %10, align 1
  %20 = zext i8 %19 to i32
  %21 = mul nsw i32 %18, %20
  %22 = load i32, ptr %11, align 4
  %23 = load i8, ptr %12, align 1
  %24 = zext i8 %23 to i32
  %25 = mul nsw i32 %22, %24
  %26 = add nsw i32 %21, %25
  %27 = load i32, ptr %13, align 4
  %28 = load i8, ptr %14, align 1
  %29 = zext i8 %28 to i32
  %30 = mul nsw i32 %27, %29
  %31 = add nsw i32 %26, %30
  %32 = load i32, ptr %15, align 4
  %33 = load i8, ptr %16, align 1
  %34 = zext i8 %33 to i32
  %35 = mul nsw i32 %32, %34
  %36 = add nsw i32 %31, %35
  %37 = load i8, ptr %10, align 1
  %38 = zext i8 %37 to i32
  %39 = load i8, ptr %12, align 1
  %40 = zext i8 %39 to i32
  %41 = add nsw i32 %38, %40
  %42 = load i8, ptr %14, align 1
  %43 = zext i8 %42 to i32
  %44 = add nsw i32 %41, %43
  %45 = load i8, ptr %16, align 1
  %46 = zext i8 %45 to i32
  %47 = add nsw i32 %44, %46
  %48 = sdiv i32 %36, %47
  store i32 %48, ptr %17, align 4
  %49 = load i32, ptr %17, align 4
  ret i32 %49
}

; Function Attrs: mustprogress nounwind uwtable
define linkonce_odr noundef i32 @_Z4qRedj(i32 noundef %0) #4 comdat {
  %2 = alloca i32, align 4
  store i32 %0, ptr %2, align 4
  %3 = load i32, ptr %2, align 4
  %4 = lshr i32 %3, 16
  %5 = and i32 %4, 255
  ret i32 %5
}

; Function Attrs: mustprogress uwtable
define noundef i32 @_ZN3vcg11mean4PixelwEjhjhjhjh(i32 noundef %0, i8 noundef zeroext %1, i32 noundef %2, i8 noundef zeroext %3, i32 noundef %4, i8 noundef zeroext %5, i32 noundef %6, i8 noundef zeroext %7) #5 {
  %9 = alloca i32, align 4
  %10 = alloca i8, align 1
  %11 = alloca i32, align 4
  %12 = alloca i8, align 1
  %13 = alloca i32, align 4
  %14 = alloca i8, align 1
  %15 = alloca i32, align 4
  %16 = alloca i8, align 1
  %17 = alloca i32, align 4
  %18 = alloca i32, align 4
  %19 = alloca i32, align 4
  %20 = alloca i32, align 4
  store i32 %0, ptr %9, align 4
  store i8 %1, ptr %10, align 1
  store i32 %2, ptr %11, align 4
  store i8 %3, ptr %12, align 1
  store i32 %4, ptr %13, align 4
  store i8 %5, ptr %14, align 1
  store i32 %6, ptr %15, align 4
  store i8 %7, ptr %16, align 1
  %21 = load i32, ptr %9, align 4
  %22 = call noundef i32 @_Z4qRedj(i32 noundef %21)
  %23 = load i8, ptr %10, align 1
  %24 = load i32, ptr %11, align 4
  %25 = call noundef i32 @_Z4qRedj(i32 noundef %24)
  %26 = load i8, ptr %12, align 1
  %27 = load i32, ptr %13, align 4
  %28 = call noundef i32 @_Z4qRedj(i32 noundef %27)
  %29 = load i8, ptr %14, align 1
  %30 = load i32, ptr %15, align 4
  %31 = call noundef i32 @_Z4qRedj(i32 noundef %30)
  %32 = load i8, ptr %16, align 1
  %33 = call noundef i32 @_ZN3vcg6mean4wEihihihih(i32 noundef %22, i8 noundef zeroext %23, i32 noundef %25, i8 noundef zeroext %26, i32 noundef %28, i8 noundef zeroext %29, i32 noundef %31, i8 noundef zeroext %32)
  store i32 %33, ptr %17, align 4
  %34 = load i32, ptr %9, align 4
  %35 = call noundef i32 @_Z6qGreenj(i32 noundef %34)
  %36 = load i8, ptr %10, align 1
  %37 = load i32, ptr %11, align 4
  %38 = call noundef i32 @_Z6qGreenj(i32 noundef %37)
  %39 = load i8, ptr %12, align 1
  %40 = load i32, ptr %13, align 4
  %41 = call noundef i32 @_Z6qGreenj(i32 noundef %40)
  %42 = load i8, ptr %14, align 1
  %43 = load i32, ptr %15, align 4
  %44 = call noundef i32 @_Z6qGreenj(i32 noundef %43)
  %45 = load i8, ptr %16, align 1
  %46 = call noundef i32 @_ZN3vcg6mean4wEihihihih(i32 noundef %35, i8 noundef zeroext %36, i32 noundef %38, i8 noundef zeroext %39, i32 noundef %41, i8 noundef zeroext %42, i32 noundef %44, i8 noundef zeroext %45)
  store i32 %46, ptr %18, align 4
  %47 = load i32, ptr %9, align 4
  %48 = call noundef i32 @_Z5qBluej(i32 noundef %47)
  %49 = load i8, ptr %10, align 1
  %50 = load i32, ptr %11, align 4
  %51 = call noundef i32 @_Z5qBluej(i32 noundef %50)
  %52 = load i8, ptr %12, align 1
  %53 = load i32, ptr %13, align 4
  %54 = call noundef i32 @_Z5qBluej(i32 noundef %53)
  %55 = load i8, ptr %14, align 1
  %56 = load i32, ptr %15, align 4
  %57 = call noundef i32 @_Z5qBluej(i32 noundef %56)
  %58 = load i8, ptr %16, align 1
  %59 = call noundef i32 @_ZN3vcg6mean4wEihihihih(i32 noundef %48, i8 noundef zeroext %49, i32 noundef %51, i8 noundef zeroext %52, i32 noundef %54, i8 noundef zeroext %55, i32 noundef %57, i8 noundef zeroext %58)
  store i32 %59, ptr %19, align 4
  %60 = load i32, ptr %9, align 4
  %61 = call noundef i32 @_Z6qAlphaj(i32 noundef %60)
  %62 = load i8, ptr %10, align 1
  %63 = load i32, ptr %11, align 4
  %64 = call noundef i32 @_Z6qAlphaj(i32 noundef %63)
  %65 = load i8, ptr %12, align 1
  %66 = load i32, ptr %13, align 4
  %67 = call noundef i32 @_Z6qAlphaj(i32 noundef %66)
  %68 = load i8, ptr %14, align 1
  %69 = load i32, ptr %15, align 4
  %70 = call noundef i32 @_Z6qAlphaj(i32 noundef %69)
  %71 = load i8, ptr %16, align 1
  %72 = call noundef i32 @_ZN3vcg6mean4wEihihihih(i32 noundef %61, i8 noundef zeroext %62, i32 noundef %64, i8 noundef zeroext %65, i32 noundef %67, i8 noundef zeroext %68, i32 noundef %70, i8 noundef zeroext %71)
  store i32 %72, ptr %20, align 4
  %73 = load i32, ptr %17, align 4
  %74 = load i32, ptr %18, align 4
  %75 = load i32, ptr %19, align 4
  %76 = load i32, ptr %20, align 4
  %77 = call noundef i32 @_Z5qRgbaiiii(i32 noundef %73, i32 noundef %74, i32 noundef %75, i32 noundef %76)
  ret i32 %77
}