; Function Attrs: mustprogress nofree norecurse nosync nounwind willreturn memory(none) uwtable
define noundef i32 @_ZN3vcg11mean4PixelwEjhjhjhjh(i32 noundef %0, i8 noundef zeroext %1, i32 noundef %2, i8 noundef zeroext %3, i32 noundef %4, i8 noundef zeroext %5, i32 noundef %6, i8 noundef zeroext %7) local_unnamed_addr #23 {
  %9 = lshr i32 %0, 16
  %10 = and i32 %9, 255
  %11 = lshr i32 %2, 16
  %12 = and i32 %11, 255
  %13 = lshr i32 %4, 16
  %14 = and i32 %13, 255
  %15 = lshr i32 %6, 16
  %16 = and i32 %15, 255
  %17 = zext i8 %1 to i32
  %18 = mul nuw nsw i32 %10, %17
  %19 = zext i8 %3 to i32
  %20 = mul nuw nsw i32 %12, %19
  %21 = add nuw nsw i32 %20, %18
  %22 = zext i8 %5 to i32
  %23 = mul nuw nsw i32 %14, %22
  %24 = add nuw nsw i32 %21, %23
  %25 = zext i8 %7 to i32
  %26 = mul nuw nsw i32 %16, %25
  %27 = add nuw nsw i32 %24, %26
  %28 = add nuw nsw i32 %19, %17
  %29 = add nuw nsw i32 %28, %22
  %30 = add nuw nsw i32 %29, %25
  %31 = udiv i32 %27, %30
  %32 = lshr i32 %0, 8
  %33 = and i32 %32, 255
  %34 = lshr i32 %2, 8
  %35 = and i32 %34, 255
  %36 = lshr i32 %4, 8
  %37 = and i32 %36, 255
  %38 = lshr i32 %6, 8
  %39 = and i32 %38, 255
  %40 = mul nuw nsw i32 %33, %17
  %41 = mul nuw nsw i32 %35, %19
  %42 = add nuw nsw i32 %41, %40
  %43 = mul nuw nsw i32 %37, %22
  %44 = add nuw nsw i32 %42, %43
  %45 = mul nuw nsw i32 %39, %25
  %46 = add nuw nsw i32 %44, %45
  %47 = udiv i32 %46, %30
  %48 = and i32 %0, 255
  %49 = and i32 %2, 255
  %50 = and i32 %4, 255
  %51 = and i32 %6, 255
  %52 = mul nuw nsw i32 %48, %17
  %53 = mul nuw nsw i32 %49, %19
  %54 = add nuw nsw i32 %53, %52
  %55 = mul nuw nsw i32 %50, %22
  %56 = add nuw nsw i32 %54, %55
  %57 = mul nuw nsw i32 %51, %25
  %58 = add nuw nsw i32 %56, %57
  %59 = udiv i32 %58, %30
  %60 = lshr i32 %0, 24
  %61 = lshr i32 %2, 24
  %62 = lshr i32 %4, 24
  %63 = lshr i32 %6, 24
  %64 = mul nuw nsw i32 %60, %17
  %65 = mul nuw nsw i32 %61, %19
  %66 = add nuw nsw i32 %65, %64
  %67 = mul nuw nsw i32 %62, %22
  %68 = add nuw nsw i32 %66, %67
  %69 = mul nuw nsw i32 %63, %25
  %70 = add nuw nsw i32 %68, %69
  %71 = udiv i32 %70, %30
  %72 = shl i32 %71, 24
  %73 = shl i32 %31, 16
  %74 = and i32 %73, 16711680
  %75 = or disjoint i32 %72, %74
  %76 = shl nuw nsw i32 %47, 8
  %77 = and i32 %76, 65280
  %78 = or disjoint i32 %75, %77
  %79 = and i32 %59, 255
  %80 = or disjoint i32 %78, %79
  ret i32 %80
}